target datalayout = "e-m:e-p270:32:32-p271:32:32-p272:64:64-i64:64-i128:128-f80:128-n8:16:32:64-S128"
target triple = "x86_64-pc-linux-gnu"

%"class.std::basic_string_view" = type { i64, ptr }
%"class.absl::lts_20240722::Status" = type { i64 }
%"class.grpc_core::FaultInjectionFilter::InjectionDecision" = type <{ i32, [4 x i8], %"class.grpc_core::Duration", %"class.std::optional", %"class.grpc_core::(anonymous namespace)::FaultHandle", [7 x i8] }>
%"class.grpc_core::Duration" = type { i64 }
%"class.std::optional" = type { %"struct.std::_Optional_base" }
%"struct.std::_Optional_base" = type { %"struct.std::_Optional_payload" }
%"struct.std::_Optional_payload" = type { %"struct.std::_Optional_payload.base", [7 x i8] }
%"struct.std::_Optional_payload.base" = type { %"struct.std::_Optional_payload_base.base" }
%"struct.std::_Optional_payload_base.base" = type <{ %"union.std::_Optional_payload_base<absl::lts_20240722::Status>::_Storage", i8 }>
%"union.std::_Optional_payload_base<absl::lts_20240722::Status>::_Storage" = type { %"class.absl::lts_20240722::Status" }
%"class.grpc_core::(anonymous namespace)::FaultHandle" = type { i8 }
%"class.std::__cxx11::basic_string" = type { %"struct.std::__cxx11::basic_string<char>::_Alloc_hider", i64, %union.anon.58 }
%"struct.std::__cxx11::basic_string<char>::_Alloc_hider" = type { ptr }
%union.anon.58 = type { i64, [8 x i8] }
%"class.absl::lts_20240722::AlphaNum" = type { %"class.std::basic_string_view", [32 x i8] }
%"struct.std::_Optional_payload_base" = type <{ %"union.std::_Optional_payload_base<absl::lts_20240722::Status>::_Storage", i8, [7 x i8] }>

@.str.3 = private unnamed_addr constant [7 x i8] c"delay=\00", align 1
@.str.4 = private unnamed_addr constant [8 x i8] c" abort=\00", align 1

; Function Attrs: noinline noreturn nounwind uwtable
define linkonce_odr hidden void @__clang_call_terminate(ptr noundef %0) #18 comdat {
  %2 = call ptr @__cxa_begin_catch(ptr %0) #3
  call void @_ZSt9terminatev() #28
  unreachable
}

; Function Attrs: mustprogress nounwind uwtable
define linkonce_odr noundef i64 @_ZNSt11char_traitsIcE6lengthEPKc(ptr noundef %0) #7 comdat align 2 {
  %2 = alloca ptr, align 8
  store ptr %0, ptr %2, align 8, !tbaa !64
  %3 = load ptr, ptr %2, align 8, !tbaa !64
  %4 = call i64 @strlen(ptr noundef %3) #3
  ret i64 %4
}

; Function Attrs: mustprogress nounwind uwtable
define linkonce_odr void @_ZNSt17basic_string_viewIcSt11char_traitsIcEEC2Ev(ptr noundef nonnull align 8 dereferenceable(16) %0) unnamed_addr #7 comdat align 2 {
  %2 = alloca ptr, align 8
  store ptr %0, ptr %2, align 8, !tbaa !340
  %3 = load ptr, ptr %2, align 8
  %4 = getelementptr inbounds nuw %"class.std::basic_string_view", ptr %3, i32 0, i32 0
  store i64 0, ptr %4, align 8, !tbaa !342
  %5 = getelementptr inbounds nuw %"class.std::basic_string_view", ptr %3, i32 0, i32 1
  store ptr null, ptr %5, align 8, !tbaa !343
  ret void
}

; Function Attrs: mustprogress nounwind uwtable
define linkonce_odr void @_ZNSt17basic_string_viewIcSt11char_traitsIcEEC2EPKc(ptr noundef nonnull align 8 dereferenceable(16) %0, ptr noundef nonnull %1) unnamed_addr #7 comdat align 2 personality ptr @__gxx_personality_v0 {
  %3 = alloca ptr, align 8
  %4 = alloca ptr, align 8
  store ptr %0, ptr %3, align 8, !tbaa !340
  store ptr %1, ptr %4, align 8, !tbaa !64
  %5 = load ptr, ptr %3, align 8
  %6 = getelementptr inbounds nuw %"class.std::basic_string_view", ptr %5, i32 0, i32 0
  %7 = load ptr, ptr %4, align 8, !tbaa !64
  %8 = invoke noundef i64 @_ZNSt11char_traitsIcE6lengthEPKc(ptr noundef %7)
          to label %9 unwind label %12

9:                                                ; preds = %2
  store i64 %8, ptr %6, align 8, !tbaa !342
  %10 = getelementptr inbounds nuw %"class.std::basic_string_view", ptr %5, i32 0, i32 1
  %11 = load ptr, ptr %4, align 8, !tbaa !64
  store ptr %11, ptr %10, align 8, !tbaa !343
  ret void

12:                                               ; preds = %2
  %13 = landingpad { ptr, i32 }
          catch ptr null
  %14 = extractvalue { ptr, i32 } %13, 0
  call void @__clang_call_terminate(ptr %14) #28
  unreachable
}

; Function Attrs: mustprogress nounwind uwtable
define linkonce_odr noundef zeroext i1 @_ZNKSt19_Optional_base_implIN4absl12lts_202407226StatusESt14_Optional_baseIS2_Lb0ELb0EEE13_M_is_engagedEv(ptr noundef nonnull align 1 dereferenceable(1) %0) #7 comdat align 2 {
  %2 = alloca ptr, align 8
  store ptr %0, ptr %2, align 8, !tbaa !332
  %3 = load ptr, ptr %2, align 8
  %4 = getelementptr inbounds nuw %"struct.std::_Optional_base", ptr %3, i32 0, i32 0
  %5 = getelementptr inbounds nuw %"struct.std::_Optional_payload_base", ptr %4, i32 0, i32 1
  %6 = load i8, ptr %5, align 8, !tbaa !234, !range !67, !noundef !68
  %7 = trunc i8 %6 to i1
  ret i1 %7
}

; Function Attrs: mustprogress nounwind uwtable
define linkonce_odr void @_ZNSt17basic_string_viewIcSt11char_traitsIcEEC2EPKcm(ptr noundef nonnull align 8 dereferenceable(16) %0, ptr noundef %1, i64 noundef %2) unnamed_addr #7 comdat align 2 {
  %4 = alloca ptr, align 8
  %5 = alloca ptr, align 8
  %6 = alloca i64, align 8
  store ptr %0, ptr %4, align 8, !tbaa !340
  store ptr %1, ptr %5, align 8, !tbaa !64
  store i64 %2, ptr %6, align 8, !tbaa !44
  %7 = load ptr, ptr %4, align 8
  %8 = getelementptr inbounds nuw %"class.std::basic_string_view", ptr %7, i32 0, i32 0
  %9 = load i64, ptr %6, align 8, !tbaa !44
  store i64 %9, ptr %8, align 8, !tbaa !342
  %10 = getelementptr inbounds nuw %"class.std::basic_string_view", ptr %7, i32 0, i32 1
  %11 = load ptr, ptr %5, align 8, !tbaa !64
  store ptr %11, ptr %10, align 8, !tbaa !343
  ret void
}

; Function Attrs: mustprogress nounwind uwtable
define linkonce_odr void @_ZN9grpc_core8DurationC2El(ptr noundef nonnull align 8 dereferenceable(8) %0, i64 noundef %1) unnamed_addr #7 comdat align 2 {
  %3 = alloca ptr, align 8
  %4 = alloca i64, align 8
  store ptr %0, ptr %3, align 8, !tbaa !129
  store i64 %1, ptr %4, align 8, !tbaa !44
  %5 = load ptr, ptr %3, align 8
  %6 = getelementptr inbounds nuw %"class.grpc_core::Duration", ptr %5, i32 0, i32 0
  %7 = load i64, ptr %4, align 8, !tbaa !44
  store i64 %7, ptr %6, align 8, !tbaa !131
  ret void
}

; Function Attrs: mustprogress nounwind uwtable
define linkonce_odr { i64, ptr } @_ZN4absl12lts_2024072218NullSafeStringViewEPKc(ptr noundef %0) #7 comdat {
  %2 = alloca %"class.std::basic_string_view", align 8
  %3 = alloca ptr, align 8
  store ptr %0, ptr %3, align 8, !tbaa !64
  %4 = load ptr, ptr %3, align 8, !tbaa !64
  %5 = icmp ne ptr %4, null
  br i1 %5, label %6, label %8

6:                                                ; preds = %1
  %7 = load ptr, ptr %3, align 8, !tbaa !64
  call void @_ZNSt17basic_string_viewIcSt11char_traitsIcEEC2EPKc(ptr noundef nonnull align 8 dereferenceable(16) %2, ptr noundef %7) #3
  br label %9

8:                                                ; preds = %1
  call void @_ZNSt17basic_string_viewIcSt11char_traitsIcEEC2Ev(ptr noundef nonnull align 8 dereferenceable(16) %2) #3
  br label %9

9:                                                ; preds = %8, %6
  %10 = load { i64, ptr }, ptr %2, align 8
  ret { i64, ptr } %10
}

; Function Attrs: mustprogress nounwind uwtable
define linkonce_odr noundef zeroext i1 @_ZNKSt8optionalIN4absl12lts_202407226StatusEE9has_valueEv(ptr noundef nonnull align 8 dereferenceable(16) %0) #7 comdat align 2 {
  %2 = alloca ptr, align 8
  store ptr %0, ptr %2, align 8, !tbaa !107
  %3 = load ptr, ptr %2, align 8
  %4 = call noundef zeroext i1 @_ZNKSt19_Optional_base_implIN4absl12lts_202407226StatusESt14_Optional_baseIS2_Lb0ELb0EEE13_M_is_engagedEv(ptr noundef nonnull align 1 dereferenceable(1) %3) #3
  ret i1 %4
}

; Function Attrs: mustprogress uwtable
define linkonce_odr void @_ZN4absl12lts_202407228AlphaNumC2Ei(ptr noundef nonnull align 8 dereferenceable(48) %0, i32 noundef %1) unnamed_addr #4 comdat align 2 {
  %3 = alloca ptr, align 8
  %4 = alloca i32, align 4
  store ptr %0, ptr %3, align 8, !tbaa !153
  store i32 %1, ptr %4, align 4, !tbaa !61
  %5 = load ptr, ptr %3, align 8
  %6 = getelementptr inbounds nuw %"class.absl::lts_20240722::AlphaNum", ptr %5, i32 0, i32 0
  %7 = getelementptr inbounds nuw %"class.absl::lts_20240722::AlphaNum", ptr %5, i32 0, i32 1
  %8 = getelementptr inbounds [32 x i8], ptr %7, i64 0, i64 0
  %9 = load i32, ptr %4, align 4, !tbaa !61
  %10 = getelementptr inbounds nuw %"class.absl::lts_20240722::AlphaNum", ptr %5, i32 0, i32 1
  %11 = getelementptr inbounds [32 x i8], ptr %10, i64 0, i64 0
  %12 = call noundef ptr @_ZN4absl12lts_2024072216numbers_internal15FastIntToBufferEiPc(i32 noundef %9, ptr noundef %11)
  %13 = getelementptr inbounds nuw %"class.absl::lts_20240722::AlphaNum", ptr %5, i32 0, i32 1
  %14 = getelementptr inbounds [32 x i8], ptr %13, i64 0, i64 0
  %15 = ptrtoint ptr %12 to i64
  %16 = ptrtoint ptr %14 to i64
  %17 = sub i64 %15, %16
  call void @_ZNSt17basic_string_viewIcSt11char_traitsIcEEC2EPKcm(ptr noundef nonnull align 8 dereferenceable(16) %6, ptr noundef %8, i64 noundef %17) #3
  ret void
}

; Function Attrs: mustprogress nounwind uwtable
define linkonce_odr noundef zeroext i1 @_ZNK9grpc_core8DurationneES0_(ptr noundef nonnull align 8 dereferenceable(8) %0, i64 %1) #7 comdat align 2 {
  %3 = alloca %"class.grpc_core::Duration", align 8
  %4 = alloca ptr, align 8
  %5 = getelementptr inbounds nuw %"class.grpc_core::Duration", ptr %3, i32 0, i32 0
  store i64 %1, ptr %5, align 8
  store ptr %0, ptr %4, align 8, !tbaa !129
  %6 = load ptr, ptr %4, align 8
  %7 = getelementptr inbounds nuw %"class.grpc_core::Duration", ptr %6, i32 0, i32 0
  %8 = load i64, ptr %7, align 8, !tbaa !131
  %9 = getelementptr inbounds nuw %"class.grpc_core::Duration", ptr %3, i32 0, i32 0
  %10 = load i64, ptr %9, align 8, !tbaa !131
  %11 = icmp ne i64 %8, %10
  ret i1 %11
}

; Function Attrs: mustprogress uwtable
define linkonce_odr i64 @_ZN9grpc_core8Duration4ZeroEv() #4 comdat align 2 {
  %1 = alloca %"class.grpc_core::Duration", align 8
  call void @_ZN9grpc_core8DurationC2El(ptr noundef nonnull align 8 dereferenceable(8) %1, i64 noundef 0)
  %2 = getelementptr inbounds nuw %"class.grpc_core::Duration", ptr %1, i32 0, i32 0
  %3 = load i64, ptr %2, align 8
  ret i64 %3
}

; Function Attrs: mustprogress uwtable
define linkonce_odr void @_ZN4absl12lts_202407228AlphaNumC2EPKc(ptr noundef nonnull align 8 dereferenceable(48) %0, ptr noundef %1) unnamed_addr #4 comdat align 2 {
  %3 = alloca ptr, align 8
  %4 = alloca ptr, align 8
  store ptr %0, ptr %3, align 8, !tbaa !153
  store ptr %1, ptr %4, align 8, !tbaa !64
  %5 = load ptr, ptr %3, align 8
  %6 = load ptr, ptr %4, align 8, !tbaa !64
  %7 = call { i64, ptr } @_ZN4absl12lts_2024072218NullSafeStringViewEPKc(ptr noundef %6)
  %8 = getelementptr inbounds nuw { i64, ptr }, ptr %5, i32 0, i32 0
  %9 = extractvalue { i64, ptr } %7, 0
  store i64 %9, ptr %8, align 8
  %10 = getelementptr inbounds nuw { i64, ptr }, ptr %5, i32 0, i32 1
  %11 = extractvalue { i64, ptr } %7, 1
  store ptr %11, ptr %10, align 8
  ret void
}

; Function Attrs: mustprogress uwtable
define void @_ZNK9grpc_core20FaultInjectionFilter17InjectionDecision8ToStringB5cxx11Ev(ptr dead_on_unwind noalias writable sret(%"class.std::__cxx11::basic_string") align 8 %0, ptr noundef nonnull align 8 dereferenceable(33) %1) #4 align 2 {
  %3 = alloca ptr, align 8
  %4 = alloca ptr, align 8
  %5 = alloca %"class.absl::lts_20240722::AlphaNum", align 8
  %6 = alloca %"class.absl::lts_20240722::AlphaNum", align 8
  %7 = alloca %"class.grpc_core::Duration", align 8
  %8 = alloca %"class.absl::lts_20240722::AlphaNum", align 8
  %9 = alloca %"class.absl::lts_20240722::AlphaNum", align 8
  store ptr %0, ptr %3, align 8
  store ptr %1, ptr %4, align 8, !tbaa !80
  %10 = load ptr, ptr %4, align 8
  call void @llvm.lifetime.start.p0(i64 48, ptr %5) #3
  call void @_ZN4absl12lts_202407228AlphaNumC2EPKc(ptr noundef nonnull align 8 dereferenceable(48) %5, ptr noundef @.str.3)
  call void @llvm.lifetime.start.p0(i64 48, ptr %6) #3
  %11 = getelementptr inbounds nuw %"class.grpc_core::FaultInjectionFilter::InjectionDecision", ptr %10, i32 0, i32 2
  %12 = call i64 @_ZN9grpc_core8Duration4ZeroEv()
  %13 = getelementptr inbounds nuw %"class.grpc_core::Duration", ptr %7, i32 0, i32 0
  store i64 %12, ptr %13, align 8
  %14 = getelementptr inbounds nuw %"class.grpc_core::Duration", ptr %7, i32 0, i32 0
  %15 = load i64, ptr %14, align 8
  %16 = call noundef zeroext i1 @_ZNK9grpc_core8DurationneES0_(ptr noundef nonnull align 8 dereferenceable(8) %11, i64 %15)
  %17 = zext i1 %16 to i32
  call void @_ZN4absl12lts_202407228AlphaNumC2Ei(ptr noundef nonnull align 8 dereferenceable(48) %6, i32 noundef %17)
  call void @llvm.lifetime.start.p0(i64 48, ptr %8) #3
  call void @_ZN4absl12lts_202407228AlphaNumC2EPKc(ptr noundef nonnull align 8 dereferenceable(48) %8, ptr noundef @.str.4)
  call void @llvm.lifetime.start.p0(i64 48, ptr %9) #3
  %18 = getelementptr inbounds nuw %"class.grpc_core::FaultInjectionFilter::InjectionDecision", ptr %10, i32 0, i32 3
  %19 = call noundef zeroext i1 @_ZNKSt8optionalIN4absl12lts_202407226StatusEE9has_valueEv(ptr noundef nonnull align 8 dereferenceable(16) %18) #3
  %20 = zext i1 %19 to i32
  call void @_ZN4absl12lts_202407228AlphaNumC2Ei(ptr noundef nonnull align 8 dereferenceable(48) %9, i32 noundef %20)
  call void @_ZN4absl12lts_202407226StrCatB5cxx11ERKNS0_8AlphaNumES3_S3_S3_(ptr dead_on_unwind writable sret(%"class.std::__cxx11::basic_string") align 8 %0, ptr noundef nonnull align 8 dereferenceable(48) %5, ptr noundef nonnull align 8 dereferenceable(48) %6, ptr noundef nonnull align 8 dereferenceable(48) %8, ptr noundef nonnull align 8 dereferenceable(48) %9)
  call void @llvm.lifetime.end.p0(i64 48, ptr %9) #3
  call void @llvm.lifetime.end.p0(i64 48, ptr %8) #3
  call void @llvm.lifetime.end.p0(i64 48, ptr %6) #3
  call void @llvm.lifetime.end.p0(i64 48, ptr %5) #3
  ret void
}