; Function Attrs: mustprogress uwtable
define void @_ZNK9grpc_core20FaultInjectionFilter17InjectionDecision8ToStringB5cxx11Ev(ptr dead_on_unwind noalias writable sret(%"class.std::__cxx11::basic_string") align 8 %0, ptr noundef nonnull readonly align 8 captures(none) dereferenceable(33) %1) local_unnamed_addr #3 align 2 personality ptr @__gxx_personality_v0 {
  %3 = alloca %"class.absl::lts_20240722::AlphaNum", align 8
  %4 = alloca %"class.absl::lts_20240722::AlphaNum", align 8
  %5 = alloca %"class.absl::lts_20240722::AlphaNum", align 8
  %6 = alloca %"class.absl::lts_20240722::AlphaNum", align 8
  call void @llvm.lifetime.start.p0(i64 48, ptr nonnull %3) #36
  store i64 6, ptr %3, align 8
  %7 = getelementptr inbounds nuw i8, ptr %3, i64 8
  store ptr @.str.3, ptr %7, align 8
  call void @llvm.lifetime.start.p0(i64 48, ptr nonnull %4) #36
  %8 = getelementptr inbounds nuw i8, ptr %1, i64 8
  %9 = load i64, ptr %8, align 8, !tbaa !51
  %10 = icmp ne i64 %9, 0
  %11 = zext i1 %10 to i32
  %12 = getelementptr inbounds nuw i8, ptr %4, i64 16
  %13 = call noundef ptr @_ZN4absl12lts_2024072216numbers_internal15FastIntToBufferEiPc(i32 noundef %11, ptr noundef nonnull %12)
  %14 = ptrtoint ptr %13 to i64
  %15 = ptrtoint ptr %12 to i64
  %16 = sub i64 %14, %15
  store i64 %16, ptr %4, align 8, !tbaa !151
  %17 = getelementptr inbounds nuw i8, ptr %4, i64 8
  store ptr %12, ptr %17, align 8, !tbaa !153
  call void @llvm.lifetime.start.p0(i64 48, ptr nonnull %5) #36
  store i64 7, ptr %5, align 8
  %18 = getelementptr inbounds nuw i8, ptr %5, i64 8
  store ptr @.str.4, ptr %18, align 8
  call void @llvm.lifetime.start.p0(i64 48, ptr nonnull %6) #36
  %19 = getelementptr inbounds nuw i8, ptr %1, i64 24
  %20 = load i8, ptr %19, align 8, !tbaa !68, !range !63, !noundef !64
  %21 = zext nneg i8 %20 to i32
  %22 = getelementptr inbounds nuw i8, ptr %6, i64 16
  %23 = call noundef ptr @_ZN4absl12lts_2024072216numbers_internal15FastIntToBufferEiPc(i32 noundef %21, ptr noundef nonnull %22)
  %24 = ptrtoint ptr %23 to i64
  %25 = ptrtoint ptr %22 to i64
  %26 = sub i64 %24, %25
  store i64 %26, ptr %6, align 8, !tbaa !151
  %27 = getelementptr inbounds nuw i8, ptr %6, i64 8
  store ptr %22, ptr %27, align 8, !tbaa !153
  call void @_ZN4absl12lts_202407226StrCatB5cxx11ERKNS0_8AlphaNumES3_S3_S3_(ptr dead_on_unwind writable sret(%"class.std::__cxx11::basic_string") align 8 %0, ptr noundef nonnull align 8 dereferenceable(48) %3, ptr noundef nonnull align 8 dereferenceable(48) %4, ptr noundef nonnull align 8 dereferenceable(48) %5, ptr noundef nonnull align 8 dereferenceable(48) %6)
  call void @llvm.lifetime.end.p0(i64 48, ptr nonnull %6) #36
  call void @llvm.lifetime.end.p0(i64 48, ptr nonnull %5) #36
  call void @llvm.lifetime.end.p0(i64 48, ptr nonnull %4) #36
  call void @llvm.lifetime.end.p0(i64 48, ptr nonnull %3) #36
  ret void
}